; Function Attrs: nounwind uwtable
define hidden ptr @_PyAST_ExprAsUnicode(ptr noundef %0) local_unnamed_addr #0 {
  %2 = tail call ptr @PyUnicodeWriter_Create(i64 noundef 256) #3
  %3 = icmp eq ptr %2, null
  br i1 %3, label %expr_as_unicode.exit, label %4

4:                                                ; preds = %1
  %5 = tail call fastcc i32 @append_ast_expr(ptr noundef %2, ptr noundef %0, i32 noundef 1)
  %6 = icmp eq i32 %5, -1
  br i1 %6, label %7, label %8

7:                                                ; preds = %4
  tail call void @PyUnicodeWriter_Discard(ptr noundef nonnull %2) #3
  br label %expr_as_unicode.exit

8:                                                ; preds = %4
  %9 = tail call ptr @PyUnicodeWriter_Finish(ptr noundef nonnull %2) #3
  br label %expr_as_unicode.exit

expr_as_unicode.exit:                             ; preds = %1, %7, %8
  %.0.i = phi ptr [ null, %7 ], [ %9, %8 ], [ null, %1 ]
  ret ptr %.0.i
}